; Function Attrs: mustprogress uwtable
define hidden void @_ZN4ncnn6CopyToC2Ev(ptr noundef nonnull align 8 dereferenceable(368) %0) unnamed_addr #1 align 2 personality ptr @__gxx_personality_v0 {
  tail call void @_ZN4ncnn5LayerC2Ev(ptr noundef nonnull align 8 dereferenceable(208) %0)
  store ptr getelementptr inbounds nuw inrange(-16, 80) (i8, ptr @_ZTVN4ncnn6CopyToE, i64 16), ptr %0, align 8, !tbaa !4
  %2 = getelementptr inbounds nuw i8, ptr %0, i64 224
  %3 = getelementptr inbounds nuw i8, ptr %0, i64 256
  %4 = getelementptr inbounds nuw i8, ptr %0, i64 288
  %5 = getelementptr inbounds nuw i8, ptr %0, i64 328
  %6 = getelementptr inbounds nuw i8, ptr %0, i64 360
  store i64 0, ptr %6, align 8, !tbaa !17
  %7 = getelementptr inbounds nuw i8, ptr %0, i64 8
  store i8 0, ptr %7, align 8, !tbaa !57
  %8 = getelementptr inbounds nuw i8, ptr %0, i64 9
  store i8 0, ptr %8, align 1, !tbaa !58
  tail call void @llvm.memset.p0.i64(ptr noundef nonnull align 8 dereferenceable(28) %2, i8 0, i64 28, i1 false)
  tail call void @llvm.memset.p0.i64(ptr noundef nonnull align 8 dereferenceable(28) %3, i8 0, i64 28, i1 false)
  tail call void @llvm.memset.p0.i64(ptr noundef nonnull align 8 dereferenceable(36) %4, i8 0, i64 36, i1 false)
  tail call void @llvm.memset.p0.i64(ptr noundef nonnull align 8 dereferenceable(28) %5, i8 0, i64 28, i1 false)
  ret void
}